target datalayout = "e-m:e-p270:32:32-p271:32:32-p272:64:64-i64:64-i128:128-f80:128-n8:16:32:64-S128"
target triple = "x86_64-pc-linux-gnu"

%"struct.std::_Vector_base.9" = type { %"struct.std::_Vector_base<char, std::allocator<char>>::_Vector_impl" }
%"struct.std::_Vector_base<char, std::allocator<char>>::_Vector_impl" = type { %"struct.std::_Vector_base<char, std::allocator<char>>::_Vector_impl_data" }
%"struct.std::_Vector_base<char, std::allocator<char>>::_Vector_impl_data" = type { ptr, ptr, ptr }
%"class.cv::gapi::s11n::ByteMemoryInStream" = type { %"struct.cv::gapi::s11n::IIStream", ptr, i64 }
%"struct.cv::gapi::s11n::IIStream" = type { ptr }
%"struct.std::_Bit_reference" = type { ptr, i64 }

; Function Attrs: mustprogress nounwind uwtable
define linkonce_odr hidden void @_ZN2cv4util23suppress_unused_warningIbEEvRKT_(ptr noundef nonnull align 1 dereferenceable(1) %0) #9 comdat {
  %2 = alloca ptr, align 8
  store ptr %0, ptr %2, align 8, !tbaa !207
  ret void
}

; Function Attrs: mustprogress nounwind uwtable
define linkonce_odr hidden noundef nonnull align 8 dereferenceable(16) ptr @_ZNSt14_Bit_referenceaSEb(ptr noundef nonnull align 8 dereferenceable(16) %0, i1 noundef zeroext %1) #9 comdat align 2 {
  %3 = alloca ptr, align 8
  %4 = alloca i8, align 1
  store ptr %0, ptr %3, align 8, !tbaa !372
  %5 = zext i1 %1 to i8
  store i8 %5, ptr %4, align 1, !tbaa !199
  %6 = load ptr, ptr %3, align 8
  %7 = load i8, ptr %4, align 1, !tbaa !199, !range !88, !noundef !89
  %8 = trunc i8 %7 to i1
  br i1 %8, label %9, label %16

9:                                                ; preds = %2
  %10 = getelementptr inbounds nuw %"struct.std::_Bit_reference", ptr %6, i32 0, i32 1
  %11 = load i64, ptr %10, align 8, !tbaa !374
  %12 = getelementptr inbounds nuw %"struct.std::_Bit_reference", ptr %6, i32 0, i32 0
  %13 = load ptr, ptr %12, align 8, !tbaa !376
  %14 = load i64, ptr %13, align 8, !tbaa !128
  %15 = or i64 %14, %11
  store i64 %15, ptr %13, align 8, !tbaa !128
  br label %24

16:                                               ; preds = %2
  %17 = getelementptr inbounds nuw %"struct.std::_Bit_reference", ptr %6, i32 0, i32 1
  %18 = load i64, ptr %17, align 8, !tbaa !374
  %19 = xor i64 %18, -1
  %20 = getelementptr inbounds nuw %"struct.std::_Bit_reference", ptr %6, i32 0, i32 0
  %21 = load ptr, ptr %20, align 8, !tbaa !376
  %22 = load i64, ptr %21, align 8, !tbaa !128
  %23 = and i64 %22, %19
  store i64 %23, ptr %21, align 8, !tbaa !128
  br label %24

24:                                               ; preds = %16, %9
  ret ptr %6
}

; Function Attrs: mustprogress nounwind uwtable
define linkonce_odr hidden noundef nonnull align 1 dereferenceable(1) ptr @_ZNKSt6vectorIcSaIcEEixEm(ptr noundef nonnull align 8 dereferenceable(24) %0, i64 noundef %1) #9 comdat align 2 {
  %3 = alloca ptr, align 8
  %4 = alloca i64, align 8
  store ptr %0, ptr %3, align 8, !tbaa !141
  store i64 %1, ptr %4, align 8, !tbaa !128
  %5 = load ptr, ptr %3, align 8
  %6 = getelementptr inbounds nuw %"struct.std::_Vector_base.9", ptr %5, i32 0, i32 0
  %7 = getelementptr inbounds nuw %"struct.std::_Vector_base<char, std::allocator<char>>::_Vector_impl_data", ptr %6, i32 0, i32 0
  %8 = load ptr, ptr %7, align 8, !tbaa !143
  %9 = load i64, ptr %4, align 8, !tbaa !128
  %10 = getelementptr inbounds nuw i8, ptr %8, i64 %9
  ret ptr %10
}

; Function Attrs: mustprogress nounwind uwtable
define linkonce_odr hidden void @_ZN2cv4gapi4s11n18ByteMemoryInStream5checkEm(ptr noundef nonnull align 8 dereferenceable(24) %0, i64 noundef %1) #9 comdat align 2 {
  %3 = alloca ptr, align 8
  %4 = alloca i64, align 8
  %5 = alloca i8, align 1
  store ptr %0, ptr %3, align 8, !tbaa !366
  store i64 %1, ptr %4, align 8, !tbaa !128
  call void @llvm.lifetime.start.p0(i64 1, ptr %5) #3
  store i8 0, ptr %5, align 1, !tbaa !199
  call void @_ZN2cv4util23suppress_unused_warningIbEEvRKT_(ptr noundef nonnull align 1 dereferenceable(1) %5)
  call void @llvm.lifetime.end.p0(i64 1, ptr %5) #3
  ret void
}

; Function Attrs: mustprogress uwtable
define noundef nonnull align 8 dereferenceable(8) ptr @_ZN2cv4gapi4s11n18ByteMemoryInStreamrsESt14_Bit_reference(ptr noundef nonnull align 8 dereferenceable(24) %0, ptr %1, i64 %2) unnamed_addr #4 align 2 {
  %4 = alloca %"struct.std::_Bit_reference", align 8
  %5 = alloca ptr, align 8
  %6 = getelementptr inbounds nuw { ptr, i64 }, ptr %4, i32 0, i32 0
  store ptr %1, ptr %6, align 8
  %7 = getelementptr inbounds nuw { ptr, i64 }, ptr %4, i32 0, i32 1
  store i64 %2, ptr %7, align 8
  store ptr %0, ptr %5, align 8, !tbaa !366
  %8 = load ptr, ptr %5, align 8
  call void @_ZN2cv4gapi4s11n18ByteMemoryInStream5checkEm(ptr noundef nonnull align 8 dereferenceable(24) %8, i64 noundef 1)
  %9 = getelementptr inbounds nuw %"class.cv::gapi::s11n::ByteMemoryInStream", ptr %8, i32 0, i32 1
  %10 = load ptr, ptr %9, align 8, !tbaa !371
  %11 = getelementptr inbounds nuw %"class.cv::gapi::s11n::ByteMemoryInStream", ptr %8, i32 0, i32 2
  %12 = load i64, ptr %11, align 8, !tbaa !368
  %13 = add i64 %12, 1
  store i64 %13, ptr %11, align 8, !tbaa !368
  %14 = call noundef nonnull align 1 dereferenceable(1) ptr @_ZNKSt6vectorIcSaIcEEixEm(ptr noundef nonnull align 8 dereferenceable(24) %10, i64 noundef %12) #3
  %15 = load i8, ptr %14, align 1, !tbaa !146
  %16 = sext i8 %15 to i32
  %17 = icmp eq i32 %16, 0
  %18 = select i1 %17, i1 false, i1 true
  %19 = call noundef nonnull align 8 dereferenceable(16) ptr @_ZNSt14_Bit_referenceaSEb(ptr noundef nonnull align 8 dereferenceable(16) %4, i1 noundef zeroext %18) #3
  ret ptr %8
}