; Function Attrs: mustprogress nofree norecurse nosync nounwind willreturn memory(read, argmem: readwrite, inaccessiblemem: none) uwtable
define noundef nonnull align 8 dereferenceable(8) ptr @_ZN2cv4gapi4s11n18ByteMemoryInStreamrsESt14_Bit_reference(ptr noundef nonnull returned align 8 dereferenceable(24) %0, ptr captures(none) %1, i64 %2) unnamed_addr #14 align 2 {
  %4 = getelementptr inbounds nuw i8, ptr %0, i64 8
  %5 = load ptr, ptr %4, align 8, !tbaa !648
  %6 = getelementptr inbounds nuw i8, ptr %0, i64 16
  %7 = load i64, ptr %6, align 8, !tbaa !645
  %8 = add i64 %7, 1
  store i64 %8, ptr %6, align 8, !tbaa !645
  %9 = load ptr, ptr %5, align 8, !tbaa !124
  %10 = getelementptr inbounds nuw i8, ptr %9, i64 %7
  %11 = load i8, ptr %10, align 1, !tbaa !56
  %.not = icmp eq i8 %11, 0
  br i1 %.not, label %15, label %12

12:                                               ; preds = %3
  %13 = load i64, ptr %1, align 8, !tbaa !55
  %14 = or i64 %13, %2
  br label %_ZNSt14_Bit_referenceaSEb.exit

15:                                               ; preds = %3
  %16 = xor i64 %2, -1
  %17 = load i64, ptr %1, align 8, !tbaa !55
  %18 = and i64 %17, %16
  br label %_ZNSt14_Bit_referenceaSEb.exit

_ZNSt14_Bit_referenceaSEb.exit:                   ; preds = %12, %15
  %storemerge = phi i64 [ %18, %15 ], [ %14, %12 ]
  store i64 %storemerge, ptr %1, align 8, !tbaa !55
  ret ptr %0
}